; ModuleID = '20/356.c'
source_filename = "20/356.c"
target datalayout = "e-m:e-p270:32:32-p271:32:32-p272:64:64-i64:64-f80:128-n8:16:32:64-S128"
target triple = "x86_64-pc-linux-gnu"

@.str = private unnamed_addr constant [5 x i8] c"%s%s\00", align 1
@.str.1 = private unnamed_addr constant [4 x i8] c"%s\0A\00", align 1

; Function Attrs: noinline nounwind uwtable
define dso_local i32 @main() #0 {
  %1 = alloca i32, align 4
  %2 = alloca [20 x i8], align 16
  %3 = alloca [10 x i8], align 1
  %4 = alloca i32, align 4
  %5 = alloca i32, align 4
  %6 = alloca i32, align 4
  store i32 0, i32* %1, align 4
  br label %7

7:                                                ; preds = %76, %0
  %8 = getelementptr inbounds [20 x i8], [20 x i8]* %2, i64 0, i64 0
  %9 = getelementptr inbounds [10 x i8], [10 x i8]* %3, i64 0, i64 0
  %10 = call i32 (i8*, ...) @__isoc99_scanf(i8* getelementptr inbounds ([5 x i8], [5 x i8]* @.str, i64 0, i64 0), i8* %8, i8* %9)
  %11 = icmp ne i32 %10, -1
  br i1 %11, label %12, label %79

12:                                               ; preds = %7
  %13 = getelementptr inbounds [20 x i8], [20 x i8]* %2, i64 0, i64 0
  %14 = call i64 @strlen(i8* %13) #3
  %15 = trunc i64 %14 to i32
  store i32 %15, i32* %6, align 4
  store i32 0, i32* %4, align 4
  store i32 1, i32* %5, align 4
  br label %16

16:                                               ; preds = %37, %12
  %17 = load i32, i32* %5, align 4
  %18 = sext i32 %17 to i64
  %19 = getelementptr inbounds [20 x i8], [20 x i8]* %2, i64 0, i64 %18
  %20 = load i8, i8* %19, align 1
  %21 = icmp ne i8 %20, 0
  br i1 %21, label %22, label %40

22:                                               ; preds = %16
  %23 = load i32, i32* %5, align 4
  %24 = sext i32 %23 to i64
  %25 = getelementptr inbounds [20 x i8], [20 x i8]* %2, i64 0, i64 %24
  %26 = load i8, i8* %25, align 1
  %27 = sext i8 %26 to i32
  %28 = load i32, i32* %4, align 4
  %29 = sext i32 %28 to i64
  %30 = getelementptr inbounds [20 x i8], [20 x i8]* %2, i64 0, i64 %29
  %31 = load i8, i8* %30, align 1
  %32 = sext i8 %31 to i32
  %33 = icmp sgt i32 %27, %32
  br i1 %33, label %34, label %36

34:                                               ; preds = %22
  %35 = load i32, i32* %5, align 4
  store i32 %35, i32* %4, align 4
  br label %36

36:                                               ; preds = %34, %22
  br label %37

37:                                               ; preds = %36
  %38 = load i32, i32* %5, align 4
  %39 = add nsw i32 %38, 1
  store i32 %39, i32* %5, align 4
  br label %16

40:                                               ; preds = %16
  %41 = load i32, i32* %6, align 4
  store i32 %41, i32* %5, align 4
  br label %42

42:                                               ; preds = %55, %40
  %43 = load i32, i32* %5, align 4
  %44 = load i32, i32* %4, align 4
  %45 = icmp sgt i32 %43, %44
  br i1 %45, label %46, label %58

46:                                               ; preds = %42
  %47 = load i32, i32* %5, align 4
  %48 = sext i32 %47 to i64
  %49 = getelementptr inbounds [20 x i8], [20 x i8]* %2, i64 0, i64 %48
  %50 = load i8, i8* %49, align 1
  %51 = load i32, i32* %5, align 4
  %52 = add nsw i32 %51, 3
  %53 = sext i32 %52 to i64
  %54 = getelementptr inbounds [20 x i8], [20 x i8]* %2, i64 0, i64 %53
  store i8 %50, i8* %54, align 1
  br label %55

55:                                               ; preds = %46
  %56 = load i32, i32* %5, align 4
  %57 = add nsw i32 %56, -1
  store i32 %57, i32* %5, align 4
  br label %42

58:                                               ; preds = %42
  store i32 0, i32* %5, align 4
  br label %59

59:                                               ; preds = %73, %58
  %60 = load i32, i32* %5, align 4
  %61 = icmp slt i32 %60, 3
  br i1 %61, label %62, label %76

62:                                               ; preds = %59
  %63 = load i32, i32* %5, align 4
  %64 = sext i32 %63 to i64
  %65 = getelementptr inbounds [10 x i8], [10 x i8]* %3, i64 0, i64 %64
  %66 = load i8, i8* %65, align 1
  %67 = load i32, i32* %4, align 4
  %68 = load i32, i32* %5, align 4
  %69 = add nsw i32 %67, %68
  %70 = add nsw i32 %69, 1
  %71 = sext i32 %70 to i64
  %72 = getelementptr inbounds [20 x i8], [20 x i8]* %2, i64 0, i64 %71
  store i8 %66, i8* %72, align 1
  br label %73

73:                                               ; preds = %62
  %74 = load i32, i32* %5, align 4
  %75 = add nsw i32 %74, 1
  store i32 %75, i32* %5, align 4
  br label %59

76:                                               ; preds = %59
  %77 = getelementptr inbounds [20 x i8], [20 x i8]* %2, i64 0, i64 0
  %78 = call i32 (i8*, ...) @printf(i8* getelementptr inbounds ([4 x i8], [4 x i8]* @.str.1, i64 0, i64 0), i8* %77)
  br label %7

79:                                               ; preds = %7
  %80 = load i32, i32* %1, align 4
  ret i32 %80
}

declare dso_local i32 @__isoc99_scanf(i8*, ...) #1

; Function Attrs: nounwind readonly
declare dso_local i64 @strlen(i8*) #2

declare dso_local i32 @printf(i8*, ...) #1


!llvm.module.flags = !{!0}
!llvm.ident = !{!1}

!0 = !{i32 1, !"wchar_size", i32 4}
!1 = !{!"clang version 10.0.0-4ubuntu1 "}
